	.file	"kernel.c"
	.text
.Ltext0:
	.comm	PTE,4,4
	.comm	GDTS,2048,64
	.comm	IDTS,2048,64
	.comm	GDTDescr,6,2
	.comm	IDTDescr,6,2
	.comm	Tasks,1520,64
	.comm	ActTaskTSS,4,4
	.comm	KernelPDEA,4,4
	.comm	KernelPTEA,4,4
	.globl	KernelPDE
	.section	.KernelPDESect,"aw",@progbits
	.align 8192
	.type	KernelPDE, @object
	.size	KernelPDE, 4
KernelPDE:
	.zero	4
	.globl	KernelPTEs
	.section	.KernelPTESect,"aw",@progbits
	.align 8192
	.type	KernelPTEs, @object
	.size	KernelPTEs, 2048
KernelPTEs:
	.zero	2048
	.comm	KernelTSS,104,64
	.globl	TasksN
	.bss
	.align 4
	.type	TasksN, @object
	.size	TasksN, 4
TasksN:
	.zero	4
	.comm	GDTC,2,2
	.comm	KernelSegmentInRM,2,2
	.comm	KernelBase,2,2
	.comm	ActTaskPrvLevel,1,1
	.globl	KernelState
	.type	KernelState, @object
	.size	KernelState, 1
KernelState:
	.zero	1
	.globl	OldCallStack
	.align 2
	.type	OldCallStack, @object
	.size	OldCallStack, 2
OldCallStack:
	.zero	2
	.globl	CallStack
	.align 2
	.type	CallStack, @object
	.size	CallStack, 2
CallStack:
	.zero	2
	.comm	ActTaskN,4,4
	.comm	ActTaskTickCount,4,4
	.comm	ActTaskMaxTick,4,4
	.comm	SystemClockEAX,4,4
	.comm	SystemClockESP,4,4
	.text
	.globl	outb
	.type	outb, @function
outb:
.LFB0:
	.file 1 "kernel.c"
	.loc 1 55 0
	.cfi_startproc
	pushl	%ebp
	.cfi_def_cfa_offset 8
	.cfi_offset 5, -8
	movl	%esp, %ebp
	.cfi_def_cfa_register 5
	subl	$8, %esp
	movl	8(%ebp), %edx
	movl	12(%ebp), %eax
	movw	%dx, -4(%ebp)
	movb	%al, -8(%ebp)
	.loc 1 56 0
	movzbl	-8(%ebp), %eax
	movzwl	-4(%ebp), %edx
#APP
# 56 "kernel.c" 1
	outb %al, %dx
# 0 "" 2
	.loc 1 57 0
#NO_APP
	leave
	.cfi_restore 5
	.cfi_def_cfa 4, 4
	ret
	.cfi_endproc
.LFE0:
	.size	outb, .-outb
	.globl	inb
	.type	inb, @function
inb:
.LFB1:
	.loc 1 59 0
	.cfi_startproc
	pushl	%ebp
	.cfi_def_cfa_offset 8
	.cfi_offset 5, -8
	movl	%esp, %ebp
	.cfi_def_cfa_register 5
	subl	$20, %esp
	movl	8(%ebp), %eax
	movw	%ax, -20(%ebp)
	.loc 1 61 0
	movzwl	-20(%ebp), %eax
	movl	%eax, %edx
#APP
# 61 "kernel.c" 1
	inb %dx, %al
# 0 "" 2
#NO_APP
	movb	%al, -1(%ebp)
	.loc 1 62 0
	movzbl	-1(%ebp), %eax
	.loc 1 63 0
	leave
	.cfi_restore 5
	.cfi_def_cfa 4, 4
	ret
	.cfi_endproc
.LFE1:
	.size	inb, .-inb
	.globl	DelayLoop
	.type	DelayLoop, @function
DelayLoop:
.LFB2:
	.loc 1 67 0
	.cfi_startproc
	pushl	%ebp
	.cfi_def_cfa_offset 8
	.cfi_offset 5, -8
	movl	%esp, %ebp
	.cfi_def_cfa_register 5
	subl	$20, %esp
	movl	8(%ebp), %eax
	movw	%ax, -20(%ebp)
	.loc 1 69 0
	movw	$0, -2(%ebp)
	jmp	.L5
.L6:
	.loc 1 69 0 is_stmt 0 discriminator 3
	movzwl	-2(%ebp), %eax
	addl	$1, %eax
	movw	%ax, -2(%ebp)
.L5:
	.loc 1 69 0 discriminator 1
	movzwl	-2(%ebp), %eax
	cmpw	-20(%ebp), %ax
	jne	.L6
	.loc 1 71 0 is_stmt 1
	leave
	.cfi_restore 5
	.cfi_def_cfa 4, 4
	ret
	.cfi_endproc
.LFE2:
	.size	DelayLoop, .-DelayLoop
	.globl	EmptyInterrupt
	.type	EmptyInterrupt, @function
EmptyInterrupt:
.LFB3:
	.loc 1 77 0
	.cfi_startproc
	pushl	%ebp
	.cfi_def_cfa_offset 8
	.cfi_offset 5, -8
	movl	%esp, %ebp
	.cfi_def_cfa_register 5
	.loc 1 78 0
#APP
# 78 "kernel.c" 1
	leave
iret

# 0 "" 2
	.loc 1 80 0
#NO_APP
	popl	%ebp
	.cfi_restore 5
	.cfi_def_cfa 4, 4
	ret
	.cfi_endproc
.LFE3:
	.size	EmptyInterrupt, .-EmptyInterrupt
	.globl	EditGDTEntry
	.type	EditGDTEntry, @function
EditGDTEntry:
.LFB4:
	.loc 1 85 0
	.cfi_startproc
	pushl	%ebp
	.cfi_def_cfa_offset 8
	.cfi_offset 5, -8
	movl	%esp, %ebp
	.cfi_def_cfa_register 5
	pushl	%edi
	pushl	%esi
	pushl	%ebx
	subl	$80, %esp
	.cfi_offset 7, -12
	.cfi_offset 6, -16
	.cfi_offset 3, -20
	movl	8(%ebp), %edx
	movl	20(%ebp), %ebx
	movl	24(%ebp), %edi
	movl	28(%ebp), %eax
	movl	%eax, -76(%ebp)
	movl	32(%ebp), %esi
	movl	%esi, -80(%ebp)
	movl	36(%ebp), %ecx
	movl	%ecx, -84(%ebp)
	movl	40(%ebp), %eax
	movl	%eax, -88(%ebp)
	movl	44(%ebp), %esi
	movl	%esi, -92(%ebp)
	movl	48(%ebp), %esi
	movl	52(%ebp), %ecx
	movl	56(%ebp), %eax
	movb	%dl, -32(%ebp)
	movb	%bl, -36(%ebp)
	movl	%edi, %ebx
	movb	%bl, -40(%ebp)
	movzbl	-76(%ebp), %ebx
	movb	%bl, -44(%ebp)
	movzbl	-80(%ebp), %ebx
	movb	%bl, -48(%ebp)
	movzbl	-84(%ebp), %ebx
	movb	%bl, -52(%ebp)
	movzbl	-88(%ebp), %ebx
	movb	%bl, -56(%ebp)
	movzbl	-92(%ebp), %ebx
	movb	%bl, -60(%ebp)
	movl	%esi, %ebx
	movb	%bl, -64(%ebp)
	movb	%cl, -68(%ebp)
	movb	%al, -72(%ebp)
	.loc 1 90 0
	movl	12(%ebp), %eax
	movl	%eax, -16(%ebp)
	.loc 1 91 0
	movzbl	-32(%ebp), %eax
	movl	-16(%ebp), %edx
	movw	%dx, GDTS(,%eax,8)
	.loc 1 92 0
	movzbl	-32(%ebp), %eax
	movl	16(%ebp), %edx
	movw	%dx, GDTS+2(,%eax,8)
	.loc 1 93 0
	movl	16(%ebp), %eax
	movl	%eax, -16(%ebp)
	.loc 1 94 0
	andl	$16711680, -16(%ebp)
	.loc 1 95 0
	shrl	$16, -16(%ebp)
	.loc 1 96 0
	movzbl	-32(%ebp), %eax
	movl	-16(%ebp), %edx
	movb	%dl, GDTS+4(,%eax,8)
	.loc 1 97 0
	movzbl	-32(%ebp), %eax
	movzbl	-36(%ebp), %edx
	andl	$1, %edx
	movl	%edx, %ecx
	andl	$1, %ecx
	movzbl	GDTS+5(,%eax,8), %edx
	andl	$-2, %edx
	orl	%ecx, %edx
	movb	%dl, GDTS+5(,%eax,8)
	.loc 1 98 0
	movzbl	-32(%ebp), %eax
	movzbl	-40(%ebp), %edx
	andl	$1, %edx
	andl	$1, %edx
	leal	(%edx,%edx), %ecx
	movzbl	GDTS+5(,%eax,8), %edx
	andl	$-3, %edx
	orl	%ecx, %edx
	movb	%dl, GDTS+5(,%eax,8)
	.loc 1 99 0
	movzbl	-32(%ebp), %eax
	movzbl	-44(%ebp), %edx
	andl	$1, %edx
	andl	$1, %edx
	leal	0(,%edx,4), %ecx
	movzbl	GDTS+5(,%eax,8), %edx
	andl	$-5, %edx
	orl	%ecx, %edx
	movb	%dl, GDTS+5(,%eax,8)
	.loc 1 100 0
	movzbl	-32(%ebp), %eax
	movzbl	-48(%ebp), %edx
	andl	$1, %edx
	andl	$1, %edx
	leal	0(,%edx,8), %ecx
	movzbl	GDTS+5(,%eax,8), %edx
	andl	$-9, %edx
	orl	%ecx, %edx
	movb	%dl, GDTS+5(,%eax,8)
	.loc 1 101 0
	movzbl	-32(%ebp), %eax
	movzbl	-52(%ebp), %edx
	andl	$1, %edx
	andl	$1, %edx
	movl	%edx, %ecx
	sall	$4, %ecx
	movzbl	GDTS+5(,%eax,8), %edx
	andl	$-17, %edx
	orl	%ecx, %edx
	movb	%dl, GDTS+5(,%eax,8)
	.loc 1 102 0
	movzbl	-32(%ebp), %eax
	movzbl	-56(%ebp), %edx
	andl	$3, %edx
	andl	$3, %edx
	movl	%edx, %ecx
	sall	$5, %ecx
	movzbl	GDTS+5(,%eax,8), %edx
	andl	$-97, %edx
	orl	%ecx, %edx
	movb	%dl, GDTS+5(,%eax,8)
	.loc 1 103 0
	movzbl	-32(%ebp), %eax
	movzbl	-60(%ebp), %edx
	andl	$1, %edx
	movl	%edx, %ecx
	sall	$7, %ecx
	movzbl	GDTS+5(,%eax,8), %edx
	andl	$127, %edx
	orl	%ecx, %edx
	movb	%dl, GDTS+5(,%eax,8)
	.loc 1 104 0
	movl	12(%ebp), %eax
	movl	%eax, -16(%ebp)
	.loc 1 105 0
	andl	$983040, -16(%ebp)
	.loc 1 106 0
	shrl	$16, -16(%ebp)
	.loc 1 108 0
	movzbl	-32(%ebp), %eax
	movl	-16(%ebp), %edx
	andl	$15, %edx
	movl	%edx, %ecx
	andl	$15, %ecx
	movzbl	GDTS+6(,%eax,8), %edx
	andl	$-16, %edx
	orl	%ecx, %edx
	movb	%dl, GDTS+6(,%eax,8)
	.loc 1 109 0
	movzbl	-32(%ebp), %eax
	movzbl	-64(%ebp), %edx
	andl	$1, %edx
	andl	$1, %edx
	movl	%edx, %ecx
	sall	$4, %ecx
	movzbl	GDTS+6(,%eax,8), %edx
	andl	$-17, %edx
	orl	%ecx, %edx
	movb	%dl, GDTS+6(,%eax,8)
	.loc 1 110 0
	movzbl	-32(%ebp), %eax
	movzbl	GDTS+6(,%eax,8), %edx
	andl	$-33, %edx
	movb	%dl, GDTS+6(,%eax,8)
	.loc 1 111 0
	movzbl	-32(%ebp), %eax
	movzbl	-68(%ebp), %edx
	andl	$1, %edx
	andl	$1, %edx
	movl	%edx, %ecx
	sall	$6, %ecx
	movzbl	GDTS+6(,%eax,8), %edx
	andl	$-65, %edx
	orl	%ecx, %edx
	movb	%dl, GDTS+6(,%eax,8)
	.loc 1 112 0
	movzbl	-32(%ebp), %eax
	movzbl	-72(%ebp), %edx
	andl	$1, %edx
	movl	%edx, %ecx
	sall	$7, %ecx
	movzbl	GDTS+6(,%eax,8), %edx
	andl	$127, %edx
	orl	%ecx, %edx
	movb	%dl, GDTS+6(,%eax,8)
	.loc 1 114 0
	movl	16(%ebp), %eax
	movl	%eax, -16(%ebp)
	.loc 1 115 0
	andl	$-16777216, -16(%ebp)
	.loc 1 116 0
	shrl	$24, -16(%ebp)
	.loc 1 117 0
	movl	$0, %eax
	.loc 1 118 0
	addl	$80, %esp
	popl	%ebx
	.cfi_restore 3
	popl	%esi
	.cfi_restore 6
	popl	%edi
	.cfi_restore 7
	popl	%ebp
	.cfi_restore 5
	.cfi_def_cfa 4, 4
	ret
	.cfi_endproc
.LFE4:
	.size	EditGDTEntry, .-EditGDTEntry
	.globl	BOCHSDBGputc
	.type	BOCHSDBGputc, @function
BOCHSDBGputc:
.LFB5:
	.loc 1 121 0
	.cfi_startproc
	pushl	%ebp
	.cfi_def_cfa_offset 8
	.cfi_offset 5, -8
	movl	%esp, %ebp
	.cfi_def_cfa_register 5
	subl	$4, %esp
	movl	8(%ebp), %eax
	movb	%al, -4(%ebp)
	.loc 1 124 0
	movzbl	-4(%ebp), %eax
	pushl	%eax
	pushl	$233
	call	outb
	addl	$8, %esp
	.loc 1 133 0
	leave
	.cfi_restore 5
	.cfi_def_cfa 4, 4
	ret
	.cfi_endproc
.LFE5:
	.size	BOCHSDBGputc, .-BOCHSDBGputc
	.type	IntToStr.1208, @function
IntToStr.1208:
.LFB7:
	.loc 1 139 0
	.cfi_startproc
	pushl	%ebp
	.cfi_def_cfa_offset 8
	.cfi_offset 5, -8
	movl	%esp, %ebp
	.cfi_def_cfa_register 5
	subl	$16, %esp
	.loc 1 141 0
	movl	$1000000000, -8(%ebp)
	.loc 1 142 0
	movl	8(%ebp), %eax
	movl	%eax, -12(%ebp)
	.loc 1 143 0
	movb	$0, -13(%ebp)
	.loc 1 145 0
	movb	$0, -14(%ebp)
	.loc 1 146 0
	movb	$0, -1(%ebp)
	jmp	.L12
.L14:
	.loc 1 147 0
	movl	-12(%ebp), %eax
	movl	$0, %edx
	divl	-8(%ebp)
	movb	%al, -15(%ebp)
	.loc 1 148 0
	movl	-12(%ebp), %eax
	movl	$0, %edx
	divl	-8(%ebp)
	movl	%edx, -12(%ebp)
	.loc 1 149 0
	cmpb	$0, -15(%ebp)
	setne	%dl
	cmpb	$1, -14(%ebp)
	sete	%al
	orl	%edx, %eax
	testb	%al, %al
	je	.L13
	.loc 1 150 0
	movb	$1, -14(%ebp)
	.loc 1 151 0
	movzbl	-13(%ebp), %edx
	movl	12(%ebp), %eax
	addl	%edx, %eax
	movzbl	-15(%ebp), %edx
	addl	$48, %edx
	movb	%dl, (%eax)
	.loc 1 152 0
	movzbl	-13(%ebp), %eax
	addl	$1, %eax
	movb	%al, -13(%ebp)
.L13:
	.loc 1 154 0 discriminator 2
	movl	-8(%ebp), %eax
	movl	$-858993459, %edx
	mull	%edx
	movl	%edx, %eax
	shrl	$3, %eax
	movl	%eax, -8(%ebp)
	.loc 1 146 0 discriminator 2
	movzbl	-1(%ebp), %eax
	addl	$1, %eax
	movb	%al, -1(%ebp)
.L12:
	.loc 1 146 0 is_stmt 0 discriminator 1
	cmpb	$9, -1(%ebp)
	jbe	.L14
	.loc 1 156 0 is_stmt 1
	cmpb	$0, -14(%ebp)
	jne	.L15
	.loc 1 157 0
	movl	12(%ebp), %eax
	movb	$48, (%eax)
	.loc 1 158 0
	movl	$1, %eax
	jmp	.L16
.L15:
	.loc 1 159 0
	movzbl	-13(%ebp), %eax
.L16:
	.loc 1 160 0
	leave
	.cfi_restore 5
	.cfi_def_cfa 4, 4
	ret
	.cfi_endproc
.LFE7:
	.size	IntToStr.1208, .-IntToStr.1208
	.globl	BOCHSDBGprintf
	.type	BOCHSDBGprintf, @function
BOCHSDBGprintf:
.LFB6:
	.loc 1 135 0
	.cfi_startproc
	pushl	%ebp
	.cfi_def_cfa_offset 8
	.cfi_offset 5, -8
	movl	%esp, %ebp
	.cfi_def_cfa_register 5
	subl	$40, %esp
	.loc 1 213 0
	movb	$0, -13(%ebp)
	.loc 1 215 0
	leal	12(%ebp), %eax
	movl	%eax, -28(%ebp)
	.loc 1 216 0
	movw	$0, -10(%ebp)
	.loc 1 217 0
	movw	$0, -12(%ebp)
	.loc 1 218 0
	movb	$0, -14(%ebp)
	.loc 1 219 0
	movl	$0, -20(%ebp)
	.loc 1 221 0
	movw	$0, -10(%ebp)
	jmp	.L18
.L36:
	.loc 1 222 0
	movzwl	-10(%ebp), %edx
	movl	8(%ebp), %eax
	addl	%edx, %eax
	movzbl	(%eax), %eax
	movzbl	%al, %eax
	cmpl	$10, %eax
	je	.L20
	cmpl	$13, %eax
	je	.L21
	jmp	.L37
.L20:
.LBB2:
	.loc 1 224 0
	movzbl	CurY, %eax
	movzbl	%al, %eax
	addl	$1, %eax
	subl	$8, %esp
	pushl	%eax
	pushl	$0
	call	SetCurPos
	addl	$16, %esp
	.loc 1 225 0
	jmp	.L22
.L21:
	.loc 1 227 0
	movzbl	CurY, %eax
	movzbl	%al, %eax
	subl	$8, %esp
	pushl	%eax
	pushl	$0
	call	SetCurPos
	addl	$16, %esp
	.loc 1 228 0
	jmp	.L22
.L37:
	.loc 1 230 0
	movzwl	-10(%ebp), %edx
	movl	8(%ebp), %eax
	addl	%edx, %eax
	movzbl	(%eax), %eax
	cmpb	$37, %al
	jne	.L23
	.loc 1 231 0
	movzwl	-10(%ebp), %eax
	leal	1(%eax), %edx
	movl	8(%ebp), %eax
	addl	%edx, %eax
	movzbl	(%eax), %eax
	movzbl	%al, %eax
	cmpl	$117, %eax
	je	.L25
	cmpl	$120, %eax
	je	.L26
	cmpl	$99, %eax
	je	.L27
	jmp	.L38
.L26:
	.loc 1 233 0
	movl	-28(%ebp), %eax
	leal	4(%eax), %edx
	movl	%edx, -28(%ebp)
	movl	(%eax), %eax
	movl	%eax, -20(%ebp)
	.loc 1 234 0
	subl	$8, %esp
	leal	-39(%ebp), %eax
	pushl	%eax
	pushl	-20(%ebp)
	call	IntToHex.1221
	addl	$16, %esp
	movb	%al, -14(%ebp)
	.loc 1 236 0
	subl	$12, %esp
	pushl	$48
	call	BOCHSDBGputc
	addl	$16, %esp
	.loc 1 237 0
	subl	$12, %esp
	pushl	$120
	call	BOCHSDBGputc
	addl	$16, %esp
	.loc 1 238 0
	movw	$0, -12(%ebp)
	jmp	.L28
.L29:
	.loc 1 239 0 discriminator 3
	movzwl	-12(%ebp), %eax
	movzbl	-39(%ebp,%eax), %eax
	movzbl	%al, %eax
	subl	$12, %esp
	pushl	%eax
	call	BOCHSDBGputc
	addl	$16, %esp
	.loc 1 238 0 discriminator 3
	movzwl	-12(%ebp), %eax
	addl	$1, %eax
	movw	%ax, -12(%ebp)
.L28:
	.loc 1 238 0 is_stmt 0 discriminator 1
	movzbl	-14(%ebp), %eax
	cmpw	-12(%ebp), %ax
	ja	.L29
	.loc 1 241 0 is_stmt 1
	jmp	.L30
.L25:
	.loc 1 243 0
	movl	-28(%ebp), %eax
	leal	4(%eax), %edx
	movl	%edx, -28(%ebp)
	movl	(%eax), %eax
	movl	%eax, -20(%ebp)
	.loc 1 244 0
	subl	$8, %esp
	leal	-39(%ebp), %eax
	pushl	%eax
	pushl	-20(%ebp)
	call	IntToStr.1208
	addl	$16, %esp
	movb	%al, -14(%ebp)
	.loc 1 246 0
	movw	$0, -12(%ebp)
	jmp	.L31
.L32:
	.loc 1 247 0 discriminator 3
	movzwl	-12(%ebp), %eax
	movzbl	-39(%ebp,%eax), %eax
	movzbl	%al, %eax
	subl	$12, %esp
	pushl	%eax
	call	BOCHSDBGputc
	addl	$16, %esp
	.loc 1 246 0 discriminator 3
	movzwl	-12(%ebp), %eax
	addl	$1, %eax
	movw	%ax, -12(%ebp)
.L31:
	.loc 1 246 0 is_stmt 0 discriminator 1
	movzbl	-14(%ebp), %eax
	cmpw	-12(%ebp), %ax
	ja	.L32
	.loc 1 249 0 is_stmt 1
	jmp	.L30
.L27:
	.loc 1 251 0
	movl	-28(%ebp), %eax
	leal	4(%eax), %edx
	movl	%edx, -28(%ebp)
	movl	(%eax), %eax
	movl	%eax, -24(%ebp)
	.loc 1 252 0
	movw	$0, -12(%ebp)
	jmp	.L33
.L34:
	.loc 1 252 0 is_stmt 0 discriminator 3
	movzwl	-12(%ebp), %edx
	movl	-24(%ebp), %eax
	addl	%edx, %eax
	movzbl	(%eax), %eax
	movzbl	%al, %eax
	subl	$12, %esp
	pushl	%eax
	call	BOCHSDBGputc
	addl	$16, %esp
	movzwl	-12(%ebp), %eax
	addl	$1, %eax
	movw	%ax, -12(%ebp)
.L33:
	.loc 1 252 0 discriminator 1
	movzwl	-12(%ebp), %edx
	movl	-24(%ebp), %eax
	addl	%edx, %eax
	movzbl	(%eax), %eax
	testb	%al, %al
	jne	.L34
	.loc 1 253 0 is_stmt 1
	jmp	.L30
.L38:
	.loc 1 255 0
	subl	$12, %esp
	pushl	$37
	call	BOCHSDBGputc
	addl	$16, %esp
	.loc 1 256 0
	movzwl	-10(%ebp), %eax
	leal	1(%eax), %edx
	movl	8(%ebp), %eax
	addl	%edx, %eax
	movzbl	(%eax), %eax
	movzbl	%al, %eax
	subl	$12, %esp
	pushl	%eax
	call	BOCHSDBGputc
	addl	$16, %esp
	.loc 1 257 0
	nop
.L30:
	.loc 1 259 0
	movzwl	-10(%ebp), %eax
	addl	$1, %eax
	movw	%ax, -10(%ebp)
	.loc 1 264 0
	jmp	.L39
.L23:
	.loc 1 262 0
	movzwl	-10(%ebp), %edx
	movl	8(%ebp), %eax
	addl	%edx, %eax
	movzbl	(%eax), %eax
	movzbl	%al, %eax
	subl	$12, %esp
	pushl	%eax
	call	BOCHSDBGputc
	addl	$16, %esp
.L39:
	.loc 1 264 0
	nop
.L22:
.LBE2:
	.loc 1 221 0 discriminator 2
	movzwl	-10(%ebp), %eax
	addl	$1, %eax
	movw	%ax, -10(%ebp)
.L18:
	.loc 1 221 0 is_stmt 0 discriminator 1
	movzwl	-10(%ebp), %edx
	movl	8(%ebp), %eax
	addl	%edx, %eax
	movzbl	(%eax), %eax
	testb	%al, %al
	jne	.L36
	.loc 1 272 0 is_stmt 1
	leave
	.cfi_restore 5
	.cfi_def_cfa 4, 4
	ret
	.cfi_endproc
.LFE6:
	.size	BOCHSDBGprintf, .-BOCHSDBGprintf
	.type	IntToHex.1221, @function
IntToHex.1221:
.LFB8:
	.loc 1 163 0
	.cfi_startproc
	pushl	%ebp
	.cfi_def_cfa_offset 8
	.cfi_offset 5, -8
	movl	%esp, %ebp
	.cfi_def_cfa_register 5
	subl	$16, %esp
	.loc 1 165 0
	movl	$268435456, -8(%ebp)
	.loc 1 166 0
	movl	8(%ebp), %eax
	movl	%eax, -12(%ebp)
	.loc 1 167 0
	movb	$0, -13(%ebp)
	.loc 1 169 0
	movb	$0, -14(%ebp)
	.loc 1 170 0
	movb	$0, -1(%ebp)
	jmp	.L41
.L52:
	.loc 1 171 0
	movl	-12(%ebp), %eax
	movl	$0, %edx
	divl	-8(%ebp)
	movb	%al, -15(%ebp)
	.loc 1 172 0
	movl	-12(%ebp), %eax
	movl	$0, %edx
	divl	-8(%ebp)
	movl	%edx, -12(%ebp)
	.loc 1 173 0
	cmpb	$0, -15(%ebp)
	setne	%dl
	cmpb	$1, -14(%ebp)
	sete	%al
	orl	%edx, %eax
	testb	%al, %al
	je	.L42
	.loc 1 174 0
	movb	$1, -14(%ebp)
	.loc 1 175 0
	movzbl	-15(%ebp), %eax
	subl	$10, %eax
	cmpl	$5, %eax
	ja	.L43
	movl	.L45(,%eax,4), %eax
	jmp	*%eax
	.section	.rodata
	.align 4
	.align 4
.L45:
	.long	.L44
	.long	.L46
	.long	.L47
	.long	.L48
	.long	.L49
	.long	.L50
	.text
.L44:
	.loc 1 177 0
	movzbl	-13(%ebp), %edx
	movl	12(%ebp), %eax
	addl	%edx, %eax
	movb	$65, (%eax)
	.loc 1 178 0
	jmp	.L51
.L46:
	.loc 1 180 0
	movzbl	-13(%ebp), %edx
	movl	12(%ebp), %eax
	addl	%edx, %eax
	movb	$66, (%eax)
	.loc 1 181 0
	jmp	.L51
.L47:
	.loc 1 183 0
	movzbl	-13(%ebp), %edx
	movl	12(%ebp), %eax
	addl	%edx, %eax
	movb	$67, (%eax)
	.loc 1 184 0
	jmp	.L51
.L48:
	.loc 1 186 0
	movzbl	-13(%ebp), %edx
	movl	12(%ebp), %eax
	addl	%edx, %eax
	movb	$68, (%eax)
	.loc 1 187 0
	jmp	.L51
.L49:
	.loc 1 189 0
	movzbl	-13(%ebp), %edx
	movl	12(%ebp), %eax
	addl	%edx, %eax
	movb	$69, (%eax)
	.loc 1 190 0
	jmp	.L51
.L50:
	.loc 1 192 0
	movzbl	-13(%ebp), %edx
	movl	12(%ebp), %eax
	addl	%edx, %eax
	movb	$70, (%eax)
	.loc 1 193 0
	jmp	.L51
.L43:
	.loc 1 195 0
	movzbl	-13(%ebp), %edx
	movl	12(%ebp), %eax
	addl	%edx, %eax
	movzbl	-15(%ebp), %edx
	addl	$48, %edx
	movb	%dl, (%eax)
	.loc 1 196 0
	nop
.L51:
	.loc 1 198 0
	movzbl	-13(%ebp), %eax
	addl	$1, %eax
	movb	%al, -13(%ebp)
.L42:
	.loc 1 200 0 discriminator 2
	movl	-8(%ebp), %eax
	shrl	$4, %eax
	movl	%eax, -8(%ebp)
	.loc 1 170 0 discriminator 2
	movzbl	-1(%ebp), %eax
	addl	$1, %eax
	movb	%al, -1(%ebp)
.L41:
	.loc 1 170 0 is_stmt 0 discriminator 1
	cmpb	$7, -1(%ebp)
	jbe	.L52
	.loc 1 202 0 is_stmt 1
	cmpb	$0, -14(%ebp)
	jne	.L53
	.loc 1 203 0
	movl	12(%ebp), %eax
	movb	$48, (%eax)
	.loc 1 204 0
	movl	$1, %eax
	jmp	.L54
.L53:
	.loc 1 205 0
	movzbl	-13(%ebp), %eax
.L54:
	.loc 1 206 0
	leave
	.cfi_restore 5
	.cfi_def_cfa 4, 4
	ret
	.cfi_endproc
.LFE8:
	.size	IntToHex.1221, .-IntToHex.1221
	.comm	SystemClockSS,2,2
.Letext0:
	.file 2 "./include/data.h"
	.file 3 "/usr/lib/gcc/x86_64-linux-gnu/4.9/include/stdarg.h"
	.section	.note.GNU-stack,"",@progbits
